target datalayout = "e-m:e-p270:32:32-p271:32:32-p272:64:64-i64:64-i128:128-f80:128-n8:16:32:64-S128"
target triple = "x86_64-pc-linux-gnu"

%struct.slurm_conf_switches = type { i32, ptr, ptr, ptr }

@.str.1 = private unnamed_addr constant [16 x i8] c"switch_record.c\00", align 1
@.str.17 = private unnamed_addr constant [10 x i8] c"LinkSpeed\00", align 1
@.str.18 = private unnamed_addr constant [6 x i8] c"Nodes\00", align 1
@.str.19 = private unnamed_addr constant [9 x i8] c"Switches\00", align 1
@__func__._parse_switches = private unnamed_addr constant [16 x i8] c"_parse_switches\00", align 1
@.str.20 = private unnamed_addr constant [46 x i8] c"SwitchName (%s) must be shorter than %d chars\00", align 1
@.str.21 = private unnamed_addr constant [44 x i8] c"switch %s has both child switches and nodes\00", align 1

; Function Attrs: nounwind uwtable
define internal void @_destroy_switches(ptr noundef %0) #0 {
  %2 = alloca ptr, align 8
  %3 = alloca ptr, align 8
  store ptr %0, ptr %2, align 8
  call void @llvm.lifetime.start.p0(i64 8, ptr %3) #6
  %4 = load ptr, ptr %2, align 8
  store ptr %4, ptr %3, align 8
  %5 = load ptr, ptr %3, align 8
  %6 = getelementptr inbounds nuw %struct.slurm_conf_switches, ptr %5, i32 0, i32 1
  call void @slurm_xfree(ptr noundef %6)
  %7 = load ptr, ptr %3, align 8
  %8 = getelementptr inbounds nuw %struct.slurm_conf_switches, ptr %7, i32 0, i32 2
  call void @slurm_xfree(ptr noundef %8)
  %9 = load ptr, ptr %3, align 8
  %10 = getelementptr inbounds nuw %struct.slurm_conf_switches, ptr %9, i32 0, i32 3
  call void @slurm_xfree(ptr noundef %10)
  call void @slurm_xfree(ptr noundef %2)
  call void @llvm.lifetime.end.p0(i64 8, ptr %3) #6
  ret void
}

; Function Attrs: nounwind uwtable
define internal i32 @_parse_switches(ptr noundef %0, i32 noundef %1, ptr noundef %2, ptr noundef %3, ptr noundef %4, ptr noundef %5) #0 {
  %7 = alloca i32, align 4
  %8 = alloca ptr, align 8
  %9 = alloca i32, align 4
  %10 = alloca ptr, align 8
  %11 = alloca ptr, align 8
  %12 = alloca ptr, align 8
  %13 = alloca ptr, align 8
  %14 = alloca ptr, align 8
  %15 = alloca ptr, align 8
  %16 = alloca i32, align 4
  store ptr %0, ptr %8, align 8
  store i32 %1, ptr %9, align 4
  store ptr %2, ptr %10, align 8
  store ptr %3, ptr %11, align 8
  store ptr %4, ptr %12, align 8
  store ptr %5, ptr %13, align 8
  call void @llvm.lifetime.start.p0(i64 8, ptr %14) #6
  call void @llvm.lifetime.start.p0(i64 8, ptr %15) #6
  %17 = call ptr @s_p_hashtbl_create(ptr noundef @_parse_switches._switch_options)
  store ptr %17, ptr %14, align 8
  %18 = load ptr, ptr %14, align 8
  %19 = load ptr, ptr %13, align 8
  %20 = load ptr, ptr %19, align 8
  %21 = load ptr, ptr %13, align 8
  %22 = call i32 @s_p_parse_line(ptr noundef %18, ptr noundef %20, ptr noundef %21)
  %23 = call ptr @slurm_xcalloc(i64 noundef 1, i64 noundef 32, i1 noundef zeroext true, i1 noundef zeroext false, ptr noundef @.str.1, i32 noundef 139, ptr noundef @__func__._parse_switches)
  store ptr %23, ptr %15, align 8
  %24 = load ptr, ptr %11, align 8
  %25 = call ptr @xstrdup(ptr noundef %24)
  %26 = load ptr, ptr %15, align 8
  %27 = getelementptr inbounds nuw %struct.slurm_conf_switches, ptr %26, i32 0, i32 2
  store ptr %25, ptr %27, align 8
  %28 = load ptr, ptr %15, align 8
  %29 = getelementptr inbounds nuw %struct.slurm_conf_switches, ptr %28, i32 0, i32 0
  %30 = load ptr, ptr %14, align 8
  %31 = call i32 @s_p_get_uint32(ptr noundef %29, ptr noundef @.str.17, ptr noundef %30)
  %32 = icmp ne i32 %31, 0
  br i1 %32, label %36, label %33

33:                                               ; preds = %6
  %34 = load ptr, ptr %15, align 8
  %35 = getelementptr inbounds nuw %struct.slurm_conf_switches, ptr %34, i32 0, i32 0
  store i32 1, ptr %35, align 8
  br label %36

36:                                               ; preds = %33, %6
  %37 = load ptr, ptr %15, align 8
  %38 = getelementptr inbounds nuw %struct.slurm_conf_switches, ptr %37, i32 0, i32 1
  %39 = load ptr, ptr %14, align 8
  %40 = call i32 @s_p_get_string(ptr noundef %38, ptr noundef @.str.18, ptr noundef %39)
  %41 = load ptr, ptr %15, align 8
  %42 = getelementptr inbounds nuw %struct.slurm_conf_switches, ptr %41, i32 0, i32 3
  %43 = load ptr, ptr %14, align 8
  %44 = call i32 @s_p_get_string(ptr noundef %42, ptr noundef @.str.19, ptr noundef %43)
  %45 = load ptr, ptr %14, align 8
  call void @s_p_hashtbl_destroy(ptr noundef %45)
  %46 = load ptr, ptr %15, align 8
  %47 = getelementptr inbounds nuw %struct.slurm_conf_switches, ptr %46, i32 0, i32 2
  %48 = load ptr, ptr %47, align 8
  %49 = call i64 @strlen(ptr noundef %48) #8
  %50 = icmp ugt i64 %49, 64
  br i1 %50, label %51, label %57

51:                                               ; preds = %36
  %52 = load ptr, ptr %15, align 8
  %53 = getelementptr inbounds nuw %struct.slurm_conf_switches, ptr %52, i32 0, i32 2
  %54 = load ptr, ptr %53, align 8
  %55 = call i32 (ptr, ...) @error(ptr noundef @.str.20, ptr noundef %54, i32 noundef 64)
  %56 = load ptr, ptr %15, align 8
  call void @_destroy_switches(ptr noundef %56)
  store i32 -1, ptr %7, align 4
  store i32 1, ptr %16, align 4
  br label %76

57:                                               ; preds = %36
  %58 = load ptr, ptr %15, align 8
  %59 = getelementptr inbounds nuw %struct.slurm_conf_switches, ptr %58, i32 0, i32 1
  %60 = load ptr, ptr %59, align 8
  %61 = icmp ne ptr %60, null
  br i1 %61, label %62, label %73

62:                                               ; preds = %57
  %63 = load ptr, ptr %15, align 8
  %64 = getelementptr inbounds nuw %struct.slurm_conf_switches, ptr %63, i32 0, i32 3
  %65 = load ptr, ptr %64, align 8
  %66 = icmp ne ptr %65, null
  br i1 %66, label %67, label %73

67:                                               ; preds = %62
  %68 = load ptr, ptr %15, align 8
  %69 = getelementptr inbounds nuw %struct.slurm_conf_switches, ptr %68, i32 0, i32 2
  %70 = load ptr, ptr %69, align 8
  %71 = call i32 (ptr, ...) @error(ptr noundef @.str.21, ptr noundef %70)
  %72 = load ptr, ptr %15, align 8
  call void @_destroy_switches(ptr noundef %72)
  store i32 -1, ptr %7, align 4
  store i32 1, ptr %16, align 4
  br label %76

73:                                               ; preds = %62, %57
  %74 = load ptr, ptr %15, align 8
  %75 = load ptr, ptr %8, align 8
  store ptr %74, ptr %75, align 8
  store i32 1, ptr %7, align 4
  store i32 1, ptr %16, align 4
  br label %76

76:                                               ; preds = %73, %67, %51
  call void @llvm.lifetime.end.p0(i64 8, ptr %15) #6
  call void @llvm.lifetime.end.p0(i64 8, ptr %14) #6
  %77 = load i32, ptr %7, align 4
  ret i32 %77
}