; Function Attrs: nounwind uwtable
define internal range(i32 -1, 2) i32 @_parse_switches(ptr noundef writeonly captures(none) %0, i32 %1, ptr readnone captures(none) %2, ptr noundef %3, ptr readnone captures(none) %4, ptr noundef %5) #0 {
  %7 = alloca ptr, align 8
  %8 = alloca ptr, align 8
  %9 = tail call ptr @s_p_hashtbl_create(ptr noundef nonnull @_parse_switches._switch_options) #7
  %10 = load ptr, ptr %5, align 8
  %11 = tail call i32 @s_p_parse_line(ptr noundef %9, ptr noundef %10, ptr noundef nonnull %5) #7
  %12 = tail call ptr @slurm_xcalloc(i64 noundef 1, i64 noundef 32, i1 noundef zeroext true, i1 noundef zeroext false, ptr noundef nonnull @.str.1, i32 noundef 139, ptr noundef nonnull @__func__._parse_switches) #7
  %13 = tail call ptr @xstrdup(ptr noundef %3) #7
  %14 = getelementptr inbounds nuw i8, ptr %12, i64 16
  store ptr %13, ptr %14, align 8
  %15 = tail call i32 @s_p_get_uint32(ptr noundef %12, ptr noundef nonnull @.str.17, ptr noundef %9) #7
  %.not = icmp eq i32 %15, 0
  br i1 %.not, label %16, label %17

16:                                               ; preds = %6
  store i32 1, ptr %12, align 8
  br label %17

17:                                               ; preds = %16, %6
  %18 = getelementptr inbounds nuw i8, ptr %12, i64 8
  %19 = tail call i32 @s_p_get_string(ptr noundef nonnull %18, ptr noundef nonnull @.str.18, ptr noundef %9) #7
  %20 = getelementptr inbounds nuw i8, ptr %12, i64 24
  %21 = tail call i32 @s_p_get_string(ptr noundef nonnull %20, ptr noundef nonnull @.str.19, ptr noundef %9) #7
  tail call void @s_p_hashtbl_destroy(ptr noundef %9) #7
  %22 = load ptr, ptr %14, align 8
  %23 = tail call i64 @strlen(ptr noundef nonnull dereferenceable(1) %22) #9
  %24 = icmp ugt i64 %23, 64
  br i1 %24, label %25, label %27

25:                                               ; preds = %17
  %26 = tail call i32 (ptr, ...) @error(ptr noundef nonnull @.str.20, ptr noundef nonnull %22, i32 noundef 64) #7
  call void @llvm.lifetime.start.p0(i64 8, ptr nonnull %8)
  store ptr %12, ptr %8, align 8
  tail call void @slurm_xfree(ptr noundef nonnull %18) #7
  tail call void @slurm_xfree(ptr noundef nonnull %14) #7
  tail call void @slurm_xfree(ptr noundef nonnull %20) #7
  call void @slurm_xfree(ptr noundef nonnull %8) #7
  call void @llvm.lifetime.end.p0(i64 8, ptr nonnull %8)
  br label %34

27:                                               ; preds = %17
  %28 = load ptr, ptr %18, align 8
  %.not22 = icmp eq ptr %28, null
  br i1 %.not22, label %33, label %29

29:                                               ; preds = %27
  %30 = load ptr, ptr %20, align 8
  %.not23 = icmp eq ptr %30, null
  br i1 %.not23, label %33, label %31

31:                                               ; preds = %29
  %32 = tail call i32 (ptr, ...) @error(ptr noundef nonnull @.str.21, ptr noundef nonnull %22) #7
  call void @llvm.lifetime.start.p0(i64 8, ptr nonnull %7)
  store ptr %12, ptr %7, align 8
  tail call void @slurm_xfree(ptr noundef nonnull %18) #7
  tail call void @slurm_xfree(ptr noundef nonnull %14) #7
  tail call void @slurm_xfree(ptr noundef nonnull %20) #7
  call void @slurm_xfree(ptr noundef nonnull %7) #7
  call void @llvm.lifetime.end.p0(i64 8, ptr nonnull %7)
  br label %34

33:                                               ; preds = %29, %27
  store ptr %12, ptr %0, align 8
  br label %34

34:                                               ; preds = %33, %31, %25
  %.0 = phi i32 [ -1, %25 ], [ -1, %31 ], [ 1, %33 ]
  ret i32 %.0
}